; Function Attrs: null_pointer_is_valid sspstrong uwtable
define internal i32 @dissect_lapb(ptr noundef %0, ptr noundef %1, ptr noundef %2, ptr readnone captures(none) %3) #0 {
  %5 = getelementptr inbounds nuw i8, ptr %1, i64 8
  %6 = load ptr, ptr %5, align 8
  tail call void @col_set_str(ptr noundef %6, i32 noundef 35, ptr noundef nonnull @.str.21)
  %7 = load ptr, ptr %5, align 8
  tail call void @col_clear(ptr noundef %7, i32 noundef 25)
  %8 = getelementptr inbounds nuw i8, ptr %1, i64 348
  %9 = load i32, ptr %8, align 4
  %10 = load ptr, ptr %5, align 8
  switch i32 %9, label %12 [
    i32 0, label %13
    i32 1, label %11
  ]

11:                                               ; preds = %4
  br label %13

12:                                               ; preds = %4
  br label %13

13:                                               ; preds = %4, %12, %11
  %.str.28.sink56 = phi ptr [ @.str.28, %12 ], [ @.str.27, %11 ], [ @.str.26, %4 ]
  %.str.28.sink = phi ptr [ @.str.28, %12 ], [ @.str.26, %11 ], [ @.str.27, %4 ]
  tail call void @col_set_str(ptr noundef %10, i32 noundef 20, ptr noundef nonnull %.str.28.sink56)
  %14 = load ptr, ptr %5, align 8
  tail call void @col_set_str(ptr noundef %14, i32 noundef 18, ptr noundef nonnull %.str.28.sink)
  %15 = tail call zeroext i8 @tvb_get_uint8(ptr noundef %0, i32 noundef 0)
  %16 = zext i8 %15 to i32
  %17 = add i8 %15, -1
  %18 = tail call i8 @llvm.fshl.i8(i8 %17, i8 %17, i8 7)
  switch i8 %18, label %19 [
    i8 7, label %24
    i8 3, label %24
    i8 1, label %24
    i8 0, label %24
  ]

19:                                               ; preds = %13
  %20 = load ptr, ptr %5, align 8
  tail call void @col_set_str(ptr noundef %20, i32 noundef 25, ptr noundef nonnull @.str.29)
  %.not = icmp eq ptr %2, null
  br i1 %.not, label %51, label %21

21:                                               ; preds = %19
  %22 = load i32, ptr @proto_lapb, align 4
  %23 = tail call ptr (ptr, i32, ptr, i32, i32, ptr, ...) @proto_tree_add_protocol_format(ptr noundef nonnull %2, i32 noundef %22, ptr noundef %0, i32 noundef 0, i32 noundef -1, ptr noundef nonnull @.str.29)
  br label %51

24:                                               ; preds = %13, %13, %13, %13
  %25 = load i32, ptr %8, align 4
  switch i32 %25, label %30 [
    i32 0, label %26
    i32 1, label %28
  ]

26:                                               ; preds = %24
  %27 = icmp eq i8 %15, 3
  br label %30

28:                                               ; preds = %24
  %29 = icmp eq i8 %15, 1
  br label %30

30:                                               ; preds = %24, %28, %26
  %31 = phi i1 [ %27, %26 ], [ %29, %28 ], [ false, %24 ]
  %32 = load i32, ptr @proto_lapb, align 4
  %33 = tail call ptr (ptr, i32, ptr, i32, i32, ptr, ...) @proto_tree_add_protocol_format(ptr noundef %2, i32 noundef %32, ptr noundef %0, i32 noundef 0, i32 noundef 2, ptr noundef nonnull @.str.21)
  %34 = load i32, ptr @ett_lapb, align 4
  %35 = tail call ptr @proto_item_add_subtree(ptr noundef %33, i32 noundef %34)
  %36 = load i32, ptr @hf_lapb_address, align 4
  %37 = tail call ptr @proto_tree_add_uint(ptr noundef %35, i32 noundef %36, ptr noundef %0, i32 noundef 0, i32 noundef 1, i32 noundef %16)
  %38 = load i32, ptr @hf_lapb_control, align 4
  %39 = load i32, ptr @ett_lapb_control, align 4
  %40 = tail call i32 @dissect_xdlc_control(ptr noundef %0, i32 noundef 1, ptr noundef %1, ptr noundef %35, i32 noundef %38, i32 noundef %39, ptr noundef nonnull @lapb_cf_items, ptr noundef null, ptr noundef null, ptr noundef null, i1 noundef zeroext %31, i1 noundef zeroext false, i1 noundef zeroext false)
  %41 = and i32 %40, 65535
  %42 = and i32 %40, 1
  %43 = icmp eq i32 %42, 0
  %44 = icmp eq i32 %41, 3
  %or.cond11 = or i1 %43, %44
  br i1 %or.cond11, label %.sink.split, label %49

.sink.split:                                      ; preds = %30
  %45 = tail call ptr @tvb_new_subset_remaining(ptr noundef %0, i32 noundef 2)
  %46 = load i32, ptr %8, align 4
  %switch = icmp ult i32 %46, 2
  %x25_dir_handle.val = load ptr, ptr @x25_dir_handle, align 8
  %x25_handle.val = load ptr, ptr @x25_handle, align 8
  %47 = select i1 %switch, ptr %x25_dir_handle.val, ptr %x25_handle.val
  %48 = tail call i32 @call_dissector(ptr noundef %47, ptr noundef %45, ptr noundef %1, ptr noundef %2)
  br label %49

49:                                               ; preds = %.sink.split, %30
  %50 = tail call i32 @tvb_captured_length(ptr noundef %0)
  br label %51

51:                                               ; preds = %19, %21, %49
  %.0 = phi i32 [ %50, %49 ], [ 1, %21 ], [ 1, %19 ]
  ret i32 %.0
}